target datalayout = "e-m:e-p270:32:32-p271:32:32-p272:64:64-i64:64-i128:128-f80:128-n8:16:32:64-S128"
target triple = "x86_64-pc-linux-gnu"

%union.pthread_mutex_t = type { %struct.__pthread_mutex_s }
%struct.__pthread_mutex_s = type { i32, i32, i32, i32, i32, i16, i16, %struct.__pthread_internal_list }
%struct.__pthread_internal_list = type { ptr, ptr }
%struct.slurmdb_stats_rec_t = type { ptr, ptr, ptr, i64, ptr }

@rpc_mutex = dso_local global %union.pthread_mutex_t zeroinitializer, align 8
@.str.22 = private unnamed_addr constant [29 x i8] c"%s: pthread_mutex_lock(): %m\00", align 1
@rpc_stats = dso_local global %struct.slurmdb_stats_rec_t zeroinitializer, align 8
@.str.23 = private unnamed_addr constant [31 x i8] c"%s: pthread_mutex_unlock(): %m\00", align 1
@.str.29 = private unnamed_addr constant [11 x i8] c"slurmdbd.c\00", align 1
@__func__.init_dbd_stats = private unnamed_addr constant [15 x i8] c"init_dbd_stats\00", align 1

; Function Attrs: nounwind uwtable
define dso_local void @init_dbd_stats() #0 {
  %1 = alloca i32, align 4
  %2 = alloca i32, align 4
  br label %3

3:                                                ; preds = %0
  call void @llvm.lifetime.start.p0(i64 4, ptr %1) #10
  %4 = call i32 @pthread_mutex_lock(ptr noundef @rpc_mutex) #10
  store i32 %4, ptr %1, align 4
  %5 = load i32, ptr %1, align 4
  %6 = icmp ne i32 %5, 0
  br i1 %6, label %7, label %10

7:                                                ; preds = %3
  %8 = load i32, ptr %1, align 4
  %9 = call ptr @__errno_location() #13
  store i32 %8, ptr %9, align 4
  call void (ptr, ...) @fatal_abort(ptr noundef @.str.22, ptr noundef @__func__.init_dbd_stats) #12
  unreachable

10:                                               ; preds = %3
  call void @llvm.lifetime.end.p0(i64 4, ptr %1) #10
  br label %11

11:                                               ; preds = %10
  call void @slurmdb_free_stats_rec_members(ptr noundef @rpc_stats)
  call void @llvm.memset.p0.i64(ptr align 8 @rpc_stats, i8 0, i64 40, i1 false)
  %12 = call ptr @slurm_xcalloc(i64 noundef 1, i64 noundef 112, i1 noundef zeroext true, i1 noundef zeroext false, ptr noundef @.str.29, i32 noundef 543, ptr noundef @__func__.init_dbd_stats)
  store ptr %12, ptr @rpc_stats, align 8
  %13 = call ptr @list_create(ptr noundef @slurmdb_destroy_rollup_stats)
  store ptr %13, ptr getelementptr inbounds nuw (%struct.slurmdb_stats_rec_t, ptr @rpc_stats, i32 0, i32 1), align 8
  %14 = call ptr @list_create(ptr noundef @slurmdb_destroy_rpc_obj)
  store ptr %14, ptr getelementptr inbounds nuw (%struct.slurmdb_stats_rec_t, ptr @rpc_stats, i32 0, i32 2), align 8
  %15 = call i64 @time(ptr noundef null) #10
  store i64 %15, ptr getelementptr inbounds nuw (%struct.slurmdb_stats_rec_t, ptr @rpc_stats, i32 0, i32 3), align 8
  %16 = call ptr @list_create(ptr noundef @slurmdb_destroy_rpc_obj)
  store ptr %16, ptr getelementptr inbounds nuw (%struct.slurmdb_stats_rec_t, ptr @rpc_stats, i32 0, i32 4), align 8
  br label %17

17:                                               ; preds = %11
  call void @llvm.lifetime.start.p0(i64 4, ptr %2) #10
  %18 = call i32 @pthread_mutex_unlock(ptr noundef @rpc_mutex) #10
  store i32 %18, ptr %2, align 4
  %19 = load i32, ptr %2, align 4
  %20 = icmp ne i32 %19, 0
  br i1 %20, label %21, label %24

21:                                               ; preds = %17
  %22 = load i32, ptr %2, align 4
  %23 = call ptr @__errno_location() #13
  store i32 %22, ptr %23, align 4
  call void (ptr, ...) @fatal_abort(ptr noundef @.str.23, ptr noundef @__func__.init_dbd_stats) #12
  unreachable

24:                                               ; preds = %17
  call void @llvm.lifetime.end.p0(i64 4, ptr %2) #10
  br label %25

25:                                               ; preds = %24
  ret void
}