; Function Attrs: nounwind uwtable
define dso_local void @init_dbd_stats() local_unnamed_addr #0 {
  %1 = tail call i32 @pthread_mutex_lock(ptr noundef nonnull @rpc_mutex) #14
  %.not = icmp eq i32 %1, 0
  br i1 %.not, label %4, label %2

2:                                                ; preds = %0
  %3 = tail call ptr @__errno_location() #18
  store i32 %1, ptr %3, align 4
  tail call void (ptr, ...) @fatal_abort(ptr noundef nonnull @.str.22, ptr noundef nonnull @__func__.init_dbd_stats) #16
  unreachable

4:                                                ; preds = %0
  tail call void @slurmdb_free_stats_rec_members(ptr noundef nonnull @rpc_stats) #14
  tail call void @llvm.memset.p0.i64(ptr noundef nonnull align 8 dereferenceable(40) @rpc_stats, i8 0, i64 40, i1 false)
  %5 = tail call ptr @slurm_xcalloc(i64 noundef 1, i64 noundef 112, i1 noundef zeroext true, i1 noundef zeroext false, ptr noundef nonnull @.str.29, i32 noundef 543, ptr noundef nonnull @__func__.init_dbd_stats) #14
  store ptr %5, ptr @rpc_stats, align 8
  %6 = tail call ptr @list_create(ptr noundef nonnull @slurmdb_destroy_rollup_stats) #14
  store ptr %6, ptr getelementptr inbounds nuw (i8, ptr @rpc_stats, i64 8), align 8
  %7 = tail call ptr @list_create(ptr noundef nonnull @slurmdb_destroy_rpc_obj) #14
  store ptr %7, ptr getelementptr inbounds nuw (i8, ptr @rpc_stats, i64 16), align 8
  %8 = tail call i64 @time(ptr noundef null) #14
  store i64 %8, ptr getelementptr inbounds nuw (i8, ptr @rpc_stats, i64 24), align 8
  %9 = tail call ptr @list_create(ptr noundef nonnull @slurmdb_destroy_rpc_obj) #14
  store ptr %9, ptr getelementptr inbounds nuw (i8, ptr @rpc_stats, i64 32), align 8
  %10 = tail call i32 @pthread_mutex_unlock(ptr noundef nonnull @rpc_mutex) #14
  %.not5 = icmp eq i32 %10, 0
  br i1 %.not5, label %13, label %11

11:                                               ; preds = %4
  %12 = tail call ptr @__errno_location() #18
  store i32 %10, ptr %12, align 4
  tail call void (ptr, ...) @fatal_abort(ptr noundef nonnull @.str.23, ptr noundef nonnull @__func__.init_dbd_stats) #16
  unreachable

13:                                               ; preds = %4
  ret void
}